; Function Attrs: mustprogress uwtable
define void @_ZN10open_spiel11Observation7SetFromERKNS_5StateEi(ptr noundef nonnull readonly align 8 captures(none) dereferenceable(64) %0, ptr noundef nonnull align 8 dereferenceable(60) %1, i32 noundef %2) local_unnamed_addr #3 align 2 personality ptr @__gxx_personality_v0 {
  %4 = alloca %"class.open_spiel::ContiguousAllocator", align 8
  %5 = getelementptr inbounds nuw i8, ptr %0, i64 16
  %6 = load ptr, ptr %5, align 8
  %7 = getelementptr inbounds nuw i8, ptr %0, i64 24
  %8 = load ptr, ptr %7, align 8
  %9 = ptrtoint ptr %8 to i64
  %10 = ptrtoint ptr %6 to i64
  %11 = sub i64 %9, %10
  %12 = ashr exact i64 %11, 2
  store ptr getelementptr inbounds nuw inrange(-16, 24) (i8, ptr @_ZTVN10open_spiel19ContiguousAllocatorE, i64 16), ptr %4, align 8
  %13 = getelementptr inbounds nuw i8, ptr %4, i64 8
  store ptr %6, ptr %13, align 8
  %14 = getelementptr inbounds nuw i8, ptr %4, i64 16
  store i64 %12, ptr %14, align 8
  %15 = getelementptr inbounds nuw i8, ptr %4, i64 24
  store i32 0, ptr %15, align 8
  %.not5.i.i.i.i.i = icmp eq ptr %8, %6
  br i1 %.not5.i.i.i.i.i, label %_ZN10open_spiel19ContiguousAllocatorC2EN4absl7debian24SpanIfEE.exit, label %.lr.ph.i.i.i.i.preheader.i

.lr.ph.i.i.i.i.preheader.i:                       ; preds = %3
  tail call void @llvm.memset.p0.i64(ptr align 4 %6, i8 0, i64 %11, i1 false)
  br label %_ZN10open_spiel19ContiguousAllocatorC2EN4absl7debian24SpanIfEE.exit

_ZN10open_spiel19ContiguousAllocatorC2EN4absl7debian24SpanIfEE.exit: ; preds = %3, %.lr.ph.i.i.i.i.preheader.i
  %16 = load ptr, ptr %0, align 8
  %17 = load ptr, ptr %16, align 8
  %18 = load ptr, ptr %17, align 8
  call void %18(ptr noundef nonnull align 8 dereferenceable(10) %16, ptr noundef nonnull align 8 dereferenceable(60) %1, i32 noundef %2, ptr noundef nonnull %4)
  ret void
}